target datalayout = "e-m:e-p270:32:32-p271:32:32-p272:64:64-i64:64-i128:128-f80:128-n8:16:32:64-S128"
target triple = "x86_64-unknown-linux-gnu"

; Function Attrs: nounwind uwtable
define internal i32 @send_bio_chars(ptr noundef %arg, ptr noundef %buf, i32 noundef %len) #0 {
entry:
  %retval = alloca i32, align 4
  %arg.addr = alloca ptr, align 8
  %buf.addr = alloca ptr, align 8
  %len.addr = alloca i32, align 4
  store ptr %arg, ptr %arg.addr, align 8
  store ptr %buf, ptr %buf.addr, align 8
  store i32 %len, ptr %len.addr, align 4
  %0 = load ptr, ptr %arg.addr, align 8
  %tobool = icmp ne ptr %0, null
  br i1 %tobool, label %if.end, label %if.then

if.then:                                          ; preds = %entry
  store i32 1, ptr %retval, align 4
  br label %return

if.end:                                           ; preds = %entry
  %1 = load ptr, ptr %arg.addr, align 8
  %2 = load ptr, ptr %buf.addr, align 8
  %3 = load i32, ptr %len.addr, align 4
  %call = call i32 @BIO_write(ptr noundef %1, ptr noundef %2, i32 noundef %3)
  %4 = load i32, ptr %len.addr, align 4
  %cmp = icmp ne i32 %call, %4
  br i1 %cmp, label %if.then1, label %if.end2

if.then1:                                         ; preds = %if.end
  store i32 0, ptr %retval, align 4
  br label %return

if.end2:                                          ; preds = %if.end
  store i32 1, ptr %retval, align 4
  br label %return

return:                                           ; preds = %if.end2, %if.then1, %if.then
  %5 = load i32, ptr %retval, align 4
  ret i32 %5
}