; Function Attrs: nounwind uwtable
define internal range(i32 0, 2) i32 @send_bio_chars(ptr noundef %arg, ptr noundef %buf, i32 noundef %len) #0 {
entry:
  %tobool.not = icmp eq ptr %arg, null
  br i1 %tobool.not, label %return, label %if.end

if.end:                                           ; preds = %entry
  %call = tail call i32 @BIO_write(ptr noundef nonnull %arg, ptr noundef %buf, i32 noundef %len) #10
  %cmp.not = icmp eq i32 %call, %len
  %. = zext i1 %cmp.not to i32
  br label %return

return:                                           ; preds = %if.end, %entry
  %retval.0 = phi i32 [ 1, %entry ], [ %., %if.end ]
  ret i32 %retval.0
}